target datalayout = "e-m:e-p270:32:32-p271:32:32-p272:64:64-i64:64-i128:128-f80:128-n8:16:32:64-S128"
target triple = "x86_64-unknown-linux-gnu"

%"class.sat::literal" = type { i32 }
%class.rational = type { %class.mpq }
%class.mpq = type { %class.mpz, %class.mpz }
%class.mpz = type { i32, i8, ptr }
%class.symbol = type { ptr }
%"struct.arith::solver::var_value_hash" = type { ptr }
%"struct.arith::solver::var_value_eq" = type { ptr }
%"class.arith::solver" = type { %"class.euf::th_euf_solver.base", [4 x i8], %class.int_hashtable, i8, %class.scoped_ptr_vector, i32, [4 x i8], %"class.arith::sls", %class.vector.11, %class.vector.12, i32, i32, i32, i32, %class.svector.13, %class.svector.15, %class.svector.17, %class.svector.19, %class.svector.21, %class.svector.15, ptr, %class.ptr_vector.23, %class.ptr_vector.25, %class.ptr_vector.23, %class.vector.27, %class.u_map, %class.vector.27, %class.svector.1, %class.svector.1, i32, %class.svector.30, i32, %class.indexed_uint_set, i32, %"struct.lp_api::stats", %class.svector.32, %class.scoped_ptr, %class.scoped_ptr.34, %class.scoped_ptr.35, %"class.arith::solver::resource_limit", %class.ptr_vector.36, %class.symbol, %"class.std::vector", %"class.lp::lp_bound_propagator", %class.vector.47, %"class.lp::explanation", %class.svector.15, %class.svector.15, %class.vector.11, %class.svector.17, %class.vector.51, %"class.nla::lemma", %class.arith_util, i8, %class.vector.48, %class.vector.48, %class.vector.48, %class.vector.11, %class.map.53, i32, %"class.sat::literal", %class.ref_vector, %class.obj_ref, %class.obj_map, %class.obj_map.61, i8, [7 x i8], %"class.arith::arith_proof_hint_builder" }
%"class.euf::th_euf_solver.base" = type <{ %"class.euf::th_solver", ptr, %class.ptr_vector, %class.svector.1, i32 }>
%"class.euf::th_solver" = type { %"class.sat::extension", %"class.euf::th_model_builder", %"class.euf::th_decompile", %"class.euf::th_internalizer", ptr }
%"class.sat::extension" = type { ptr, i8, i32, %class.symbol, ptr }
%"class.euf::th_model_builder" = type { ptr }
%"class.euf::th_decompile" = type { ptr }
%"class.euf::th_internalizer" = type { ptr, %class.ptr_vector, %class.svector }
%class.svector = type { %class.vector.0 }
%class.vector.0 = type { ptr }
%class.ptr_vector = type { %class.vector }
%class.vector = type { ptr }
%class.int_hashtable = type { %class.core_hashtable.base, [4 x i8] }
%class.core_hashtable.base = type <{ %"struct.arith::solver::var_value_hash", %"struct.arith::solver::var_value_eq", ptr, i32, i32, i32 }>
%class.scoped_ptr_vector = type { %class.ptr_vector.3 }
%class.ptr_vector.3 = type { %class.vector.4 }
%class.vector.4 = type { ptr }
%"class.arith::sls" = type <{ %"class.sat::local_search_plugin", ptr, ptr, ptr, %"struct.arith::sls::stats", [4 x i8], %"struct.arith::sls::config", %class.scoped_ptr_vector.5, %class.vector.8, %class.svector.9, i8, [7 x i8] }>
%"class.sat::local_search_plugin" = type { ptr }
%"struct.arith::sls::stats" = type { i32 }
%"struct.arith::sls::config" = type { double, i32, i32, i32, double }
%class.scoped_ptr_vector.5 = type { %class.ptr_vector.6 }
%class.ptr_vector.6 = type { %class.vector.7 }
%class.vector.7 = type { ptr }
%class.vector.8 = type { ptr }
%class.svector.9 = type { %class.vector.10 }
%class.vector.10 = type { ptr }
%class.vector.12 = type { ptr }
%class.svector.13 = type { %class.vector.14 }
%class.vector.14 = type { ptr }
%class.svector.19 = type { %class.vector.20 }
%class.vector.20 = type { ptr }
%class.svector.21 = type { %class.vector.22 }
%class.vector.22 = type { ptr }
%class.ptr_vector.25 = type { %class.vector.26 }
%class.vector.26 = type { ptr }
%class.ptr_vector.23 = type { %class.vector.24 }
%class.vector.24 = type { ptr }
%class.u_map = type { %class.map }
%class.map = type { %class.table2map }
%class.table2map = type { %class.core_hashtable.28 }
%class.core_hashtable.28 = type <{ ptr, i32, i32, i32, [4 x i8] }>
%class.vector.27 = type { ptr }
%class.svector.1 = type { %class.vector.2 }
%class.vector.2 = type { ptr }
%class.svector.30 = type { %class.vector.31 }
%class.vector.31 = type { ptr }
%class.indexed_uint_set = type { i32, %class.svector.1, %class.svector.1 }
%"struct.lp_api::stats" = type { i32, i32, i32, i32, i32, i32, i32, i32, i32, i32, i32, i32, i32, i32, i32, i32 }
%class.svector.32 = type { %class.vector.33 }
%class.vector.33 = type { ptr }
%class.scoped_ptr = type { ptr }
%class.scoped_ptr.34 = type { ptr }
%class.scoped_ptr.35 = type { ptr }
%"class.arith::solver::resource_limit" = type { %"class.lp::lp_resource_limit", ptr }
%"class.lp::lp_resource_limit" = type { ptr }
%class.ptr_vector.36 = type { %class.vector.37 }
%class.vector.37 = type { ptr }
%"class.std::vector" = type { %"struct.std::_Vector_base" }
%"struct.std::_Vector_base" = type { %"struct.std::_Vector_base<lp::implied_bound, std_allocator<lp::implied_bound>>::_Vector_impl" }
%"struct.std::_Vector_base<lp::implied_bound, std_allocator<lp::implied_bound>>::_Vector_impl" = type { %"struct.std::_Vector_base<lp::implied_bound, std_allocator<lp::implied_bound>>::_Vector_impl_data" }
%"struct.std::_Vector_base<lp::implied_bound, std_allocator<lp::implied_bound>>::_Vector_impl_data" = type { ptr, ptr, ptr }
%"class.lp::lp_bound_propagator" = type { %class.uint_set, %class.u_map.38, %class.u_map.38, ptr, ptr, %class.map.43, %class.map.43, %class.map.43, ptr }
%class.uint_set = type { %class.svector.1 }
%class.u_map.38 = type { %class.map.39 }
%class.map.39 = type { %class.table2map.40 }
%class.table2map.40 = type { %class.core_hashtable.41 }
%class.core_hashtable.41 = type <{ ptr, i32, i32, i32, [4 x i8] }>
%class.map.43 = type { %class.table2map.44 }
%class.table2map.44 = type { %class.core_hashtable.45 }
%class.core_hashtable.45 = type <{ ptr, i32, i32, i32, [4 x i8] }>
%class.vector.47 = type { ptr }
%"class.lp::explanation" = type { %class.vector.48, %class.hashtable }
%class.hashtable = type { %class.core_hashtable.base.50, [4 x i8] }
%class.core_hashtable.base.50 = type <{ ptr, i32, i32, i32 }>
%class.svector.15 = type { %class.vector.16 }
%class.vector.16 = type { ptr }
%class.svector.17 = type { %class.vector.18 }
%class.vector.18 = type { ptr }
%class.vector.51 = type { ptr }
%"class.nla::lemma" = type { %class.vector.52, %"class.lp::explanation" }
%class.vector.52 = type { ptr }
%class.arith_util = type { ptr, ptr }
%class.vector.48 = type { ptr }
%class.vector.11 = type { ptr }
%class.map.53 = type { %class.table2map.54 }
%class.table2map.54 = type { %class.core_hashtable.55 }
%class.core_hashtable.55 = type <{ ptr, i32, i32, i32, [4 x i8] }>
%class.ref_vector = type { %class.ref_vector_core }
%class.ref_vector_core = type { %class.ref_manager_wrapper, %class.ptr_vector.25 }
%class.ref_manager_wrapper = type { ptr }
%class.obj_ref = type { ptr, ptr }
%class.obj_map = type { %class.core_hashtable.57 }
%class.core_hashtable.57 = type <{ ptr, i32, i32, i32, [4 x i8] }>
%class.obj_map.61 = type { %class.core_hashtable.62 }
%class.core_hashtable.62 = type <{ ptr, i32, i32, i32, [4 x i8] }>
%"class.arith::arith_proof_hint_builder" = type <{ %class.vector.66, %class.svector.67, i32, i32, i32, i32, i32, [4 x i8] }>
%class.vector.66 = type { ptr }
%class.svector.67 = type { %class.vector.68 }
%class.vector.68 = type { ptr }
%"class.lp_api::bound" = type <{ ptr, %"class.sat::literal", i32, i32, i8, [3 x i8], %class.rational, i32, [2 x i32], [4 x i8] }>
%struct._key_data.415 = type { i32, ptr }

; Function Attrs: mustprogress nounwind uwtable
define linkonce_odr hidden void @_ZN9_key_dataIjPN6lp_api5boundIN3sat7literalEEEEC2ERKj(ptr noundef nonnull align 8 dereferenceable(16) %this, ptr noundef nonnull align 4 dereferenceable(4) %k) unnamed_addr #4 comdat align 2 {
entry:
  %this.addr = alloca ptr, align 8
  %k.addr = alloca ptr, align 8
  store ptr %this, ptr %this.addr, align 8
  store ptr %k, ptr %k.addr, align 8
  %this1 = load ptr, ptr %this.addr, align 8
  %m_key = getelementptr inbounds %struct._key_data.415, ptr %this1, i32 0, i32 0
  %0 = load ptr, ptr %k.addr, align 8
  %1 = load i32, ptr %0, align 4
  store i32 %1, ptr %m_key, align 8
  ret void
}

; Function Attrs: mustprogress uwtable
define linkonce_odr hidden void @_ZN9table2mapI17default_map_entryIjPN6lp_api5boundIN3sat7literalEEEE6u_hash4u_eqE6removeERKj(ptr noundef nonnull align 8 dereferenceable(24) %this, ptr noundef nonnull align 4 dereferenceable(4) %k) #5 comdat align 2 {
entry:
  %this.addr = alloca ptr, align 8
  %k.addr = alloca ptr, align 8
  %ref.tmp = alloca %struct._key_data.415, align 8
  store ptr %this, ptr %this.addr, align 8
  store ptr %k, ptr %k.addr, align 8
  %this1 = load ptr, ptr %this.addr, align 8
  %m_table = getelementptr inbounds %class.table2map, ptr %this1, i32 0, i32 0
  %0 = load ptr, ptr %k.addr, align 8
  call void @_ZN9_key_dataIjPN6lp_api5boundIN3sat7literalEEEEC2ERKj(ptr noundef nonnull align 8 dereferenceable(16) %ref.tmp, ptr noundef nonnull align 4 dereferenceable(4) %0)
  call void @_ZN14core_hashtableI17default_map_entryIjPN6lp_api5boundIN3sat7literalEEEEN9table2mapIS7_6u_hash4u_eqE15entry_hash_procENSB_13entry_eq_procEE6removeERK9_key_dataIjS6_E(ptr noundef nonnull align 8 dereferenceable(20) %m_table, ptr noundef nonnull align 8 dereferenceable(16) %ref.tmp)
  ret void
}

; Function Attrs: mustprogress nounwind uwtable
define linkonce_odr hidden noundef nonnull align 8 dereferenceable(8) ptr @_ZN6vectorIPN6lp_api5boundIN3sat7literalEEELb0EjEixEj(ptr noundef nonnull align 8 dereferenceable(8) %this, i32 noundef %idx) #4 comdat align 2 {
entry:
  %this.addr = alloca ptr, align 8
  %idx.addr = alloca i32, align 4
  store ptr %this, ptr %this.addr, align 8
  store i32 %idx, ptr %idx.addr, align 4
  %this1 = load ptr, ptr %this.addr, align 8
  %m_data = getelementptr inbounds %class.vector.37, ptr %this1, i32 0, i32 0
  %0 = load ptr, ptr %m_data, align 8
  %1 = load i32, ptr %idx.addr, align 4
  %idxprom = zext i32 %1 to i64
  %arrayidx = getelementptr inbounds ptr, ptr %0, i64 %idxprom
  ret ptr %arrayidx
}

; Function Attrs: mustprogress nounwind uwtable
define linkonce_odr hidden noundef i32 @_ZNK6vectorIPN6lp_api5boundIN3sat7literalEEELb0EjE4sizeEv(ptr noundef nonnull align 8 dereferenceable(8) %this) #4 comdat align 2 {
entry:
  %retval = alloca i32, align 4
  %this.addr = alloca ptr, align 8
  store ptr %this, ptr %this.addr, align 8
  %this1 = load ptr, ptr %this.addr, align 8
  %m_data = getelementptr inbounds %class.vector.37, ptr %this1, i32 0, i32 0
  %0 = load ptr, ptr %m_data, align 8
  %cmp = icmp eq ptr %0, null
  br i1 %cmp, label %if.then, label %if.end

if.then:                                          ; preds = %entry
  store i32 0, ptr %retval, align 4
  br label %return

if.end:                                           ; preds = %entry
  %m_data2 = getelementptr inbounds %class.vector.37, ptr %this1, i32 0, i32 0
  %1 = load ptr, ptr %m_data2, align 8
  %arrayidx = getelementptr inbounds i32, ptr %1, i64 -1
  %2 = load i32, ptr %arrayidx, align 4
  store i32 %2, ptr %retval, align 4
  br label %return

return:                                           ; preds = %if.end, %if.then
  %3 = load i32, ptr %retval, align 4
  ret i32 %3
}

; Function Attrs: mustprogress nounwind uwtable
define linkonce_odr hidden void @_ZN6vectorIjLb0EjE6shrinkEj(ptr noundef nonnull align 8 dereferenceable(8) %this, i32 noundef %s) #4 comdat align 2 {
entry:
  %this.addr = alloca ptr, align 8
  %s.addr = alloca i32, align 4
  store ptr %this, ptr %this.addr, align 8
  store i32 %s, ptr %s.addr, align 4
  %this1 = load ptr, ptr %this.addr, align 8
  %m_data = getelementptr inbounds %class.vector.2, ptr %this1, i32 0, i32 0
  %0 = load ptr, ptr %m_data, align 8
  %tobool = icmp ne ptr %0, null
  br i1 %tobool, label %if.then, label %if.else

if.then:                                          ; preds = %entry
  %1 = load i32, ptr %s.addr, align 4
  %m_data2 = getelementptr inbounds %class.vector.2, ptr %this1, i32 0, i32 0
  %2 = load ptr, ptr %m_data2, align 8
  %arrayidx = getelementptr inbounds i32, ptr %2, i64 -1
  store i32 %1, ptr %arrayidx, align 4
  br label %if.end

if.else:                                          ; preds = %entry
  br label %if.end

if.end:                                           ; preds = %if.else, %if.then
  ret void
}

; Function Attrs: mustprogress nounwind uwtable
define linkonce_odr hidden void @_ZN6vectorIPN6lp_api5boundIN3sat7literalEEELb0EjE8pop_backEv(ptr noundef nonnull align 8 dereferenceable(8) %this) #4 comdat align 2 {
entry:
  %this.addr = alloca ptr, align 8
  store ptr %this, ptr %this.addr, align 8
  %this1 = load ptr, ptr %this.addr, align 8
  %m_data = getelementptr inbounds %class.vector.37, ptr %this1, i32 0, i32 0
  %0 = load ptr, ptr %m_data, align 8
  %arrayidx = getelementptr inbounds i32, ptr %0, i64 -1
  %1 = load i32, ptr %arrayidx, align 4
  %dec = add i32 %1, -1
  store i32 %dec, ptr %arrayidx, align 4
  ret void
}

; Function Attrs: mustprogress uwtable
define linkonce_odr hidden void @_Z7deallocIN6lp_api5boundIN3sat7literalEEEEvPT_(ptr noundef %ptr) #5 comdat {
entry:
  %ptr.addr = alloca ptr, align 8
  store ptr %ptr, ptr %ptr.addr, align 8
  %0 = load ptr, ptr %ptr.addr, align 8
  %cmp = icmp eq ptr %0, null
  br i1 %cmp, label %if.then, label %if.end

if.then:                                          ; preds = %entry
  br label %return

if.end:                                           ; preds = %entry
  %1 = load ptr, ptr %ptr.addr, align 8
  %vtable = load ptr, ptr %1, align 8
  %vfn = getelementptr inbounds ptr, ptr %vtable, i64 0
  %2 = load ptr, ptr %vfn, align 8
  call void %2(ptr noundef nonnull align 8 dereferenceable(68) %1) #3
  %3 = load ptr, ptr %ptr.addr, align 8
  call void @_ZN6memory10deallocateEPv(ptr noundef %3)
  br label %return

return:                                           ; preds = %if.end, %if.then
  ret void
}

; Function Attrs: mustprogress uwtable
define linkonce_odr hidden void @_ZN9table2mapI17default_map_entryIjPN6lp_api5boundIN3sat7literalEEEE6u_hash4u_eqE5eraseERKj(ptr noundef nonnull align 8 dereferenceable(24) %this, ptr noundef nonnull align 4 dereferenceable(4) %k) #5 comdat align 2 {
entry:
  %this.addr = alloca ptr, align 8
  %k.addr = alloca ptr, align 8
  store ptr %this, ptr %this.addr, align 8
  store ptr %k, ptr %k.addr, align 8
  %this1 = load ptr, ptr %this.addr, align 8
  %0 = load ptr, ptr %k.addr, align 8
  call void @_ZN9table2mapI17default_map_entryIjPN6lp_api5boundIN3sat7literalEEEE6u_hash4u_eqE6removeERKj(ptr noundef nonnull align 8 dereferenceable(24) %this1, ptr noundef nonnull align 4 dereferenceable(4) %0)
  ret void
}

; Function Attrs: mustprogress nounwind uwtable
define linkonce_odr hidden noundef i32 @_ZNK3sat7literal3varEv(ptr noundef nonnull align 4 dereferenceable(4) %this) #4 comdat align 2 {
entry:
  %this.addr = alloca ptr, align 8
  store ptr %this, ptr %this.addr, align 8
  %this1 = load ptr, ptr %this.addr, align 8
  %m_val = getelementptr inbounds %"class.sat::literal", ptr %this1, i32 0, i32 0
  %0 = load i32, ptr %m_val, align 4
  %shr = lshr i32 %0, 1
  ret i32 %shr
}

; Function Attrs: mustprogress nounwind uwtable
define linkonce_odr hidden i32 @_ZNK6lp_api5boundIN3sat7literalEE7get_litEv(ptr noundef nonnull align 8 dereferenceable(68) %this) #4 comdat align 2 {
entry:
  %retval = alloca %"class.sat::literal", align 4
  %this.addr = alloca ptr, align 8
  store ptr %this, ptr %this.addr, align 8
  %this1 = load ptr, ptr %this.addr, align 8
  %m_bv = getelementptr inbounds %"class.lp_api::bound", ptr %this1, i32 0, i32 1
  call void @llvm.memcpy.p0.p0.i64(ptr align 4 %retval, ptr align 8 %m_bv, i64 4, i1 false)
  %coerce.dive = getelementptr inbounds %"class.sat::literal", ptr %retval, i32 0, i32 0
  %0 = load i32, ptr %coerce.dive, align 4
  ret i32 %0
}

; Function Attrs: mustprogress uwtable
define linkonce_odr hidden noundef nonnull align 8 dereferenceable(8) ptr @_ZN6vectorIPN6lp_api5boundIN3sat7literalEEELb0EjE4backEv(ptr noundef nonnull align 8 dereferenceable(8) %this) #5 comdat align 2 {
entry:
  %this.addr = alloca ptr, align 8
  store ptr %this, ptr %this.addr, align 8
  %this1 = load ptr, ptr %this.addr, align 8
  %call = call noundef i32 @_ZNK6vectorIPN6lp_api5boundIN3sat7literalEEELb0EjE4sizeEv(ptr noundef nonnull align 8 dereferenceable(8) %this1)
  %sub = sub i32 %call, 1
  %call2 = call noundef nonnull align 8 dereferenceable(8) ptr @_ZN6vectorIPN6lp_api5boundIN3sat7literalEEELb0EjEixEj(ptr noundef nonnull align 8 dereferenceable(8) %this1, i32 noundef %sub)
  ret ptr %call2
}

; Function Attrs: mustprogress nounwind uwtable
define linkonce_odr hidden noundef nonnull align 8 dereferenceable(8) ptr @_ZN6vectorI10ptr_vectorIN6lp_api5boundIN3sat7literalEEEELb1EjEixEj(ptr noundef nonnull align 8 dereferenceable(8) %this, i32 noundef %idx) #4 comdat align 2 {
entry:
  %this.addr = alloca ptr, align 8
  %idx.addr = alloca i32, align 4
  store ptr %this, ptr %this.addr, align 8
  store i32 %idx, ptr %idx.addr, align 4
  %this1 = load ptr, ptr %this.addr, align 8
  %m_data = getelementptr inbounds %class.vector.27, ptr %this1, i32 0, i32 0
  %0 = load ptr, ptr %m_data, align 8
  %1 = load i32, ptr %idx.addr, align 4
  %idxprom = zext i32 %1 to i64
  %arrayidx = getelementptr inbounds %class.ptr_vector.36, ptr %0, i64 %idxprom
  ret ptr %arrayidx
}

; Function Attrs: mustprogress nounwind uwtable
define linkonce_odr hidden noundef nonnull align 4 dereferenceable(4) ptr @_ZN6vectorIjLb0EjEixEj(ptr noundef nonnull align 8 dereferenceable(8) %this, i32 noundef %idx) #4 comdat align 2 {
entry:
  %this.addr = alloca ptr, align 8
  %idx.addr = alloca i32, align 4
  store ptr %this, ptr %this.addr, align 8
  store i32 %idx, ptr %idx.addr, align 4
  %this1 = load ptr, ptr %this.addr, align 8
  %m_data = getelementptr inbounds %class.vector.2, ptr %this1, i32 0, i32 0
  %0 = load ptr, ptr %m_data, align 8
  %1 = load i32, ptr %idx.addr, align 4
  %idxprom = zext i32 %1 to i64
  %arrayidx = getelementptr inbounds i32, ptr %0, i64 %idxprom
  ret ptr %arrayidx
}

; Function Attrs: mustprogress nounwind uwtable
define linkonce_odr hidden noundef i32 @_ZNK6vectorIjLb0EjE4sizeEv(ptr noundef nonnull align 8 dereferenceable(8) %this) #4 comdat align 2 {
entry:
  %retval = alloca i32, align 4
  %this.addr = alloca ptr, align 8
  store ptr %this, ptr %this.addr, align 8
  %this1 = load ptr, ptr %this.addr, align 8
  %m_data = getelementptr inbounds %class.vector.2, ptr %this1, i32 0, i32 0
  %0 = load ptr, ptr %m_data, align 8
  %cmp = icmp eq ptr %0, null
  br i1 %cmp, label %if.then, label %if.end

if.then:                                          ; preds = %entry
  store i32 0, ptr %retval, align 4
  br label %return

if.end:                                           ; preds = %entry
  %m_data2 = getelementptr inbounds %class.vector.2, ptr %this1, i32 0, i32 0
  %1 = load ptr, ptr %m_data2, align 8
  %arrayidx = getelementptr inbounds i32, ptr %1, i64 -1
  %2 = load i32, ptr %arrayidx, align 4
  store i32 %2, ptr %retval, align 4
  br label %return

return:                                           ; preds = %if.end, %if.then
  %3 = load i32, ptr %retval, align 4
  ret i32 %3
}

; Function Attrs: mustprogress uwtable
define hidden void @_ZN5arith6solver10del_boundsEj(ptr noundef nonnull align 8 dereferenceable(1144) %this, i32 noundef %old_size) #5 align 2 {
entry:
  %this.addr = alloca ptr, align 8
  %old_size.addr = alloca i32, align 4
  %i = alloca i32, align 4
  %v = alloca i32, align 4
  %b = alloca ptr, align 8
  %ref.tmp = alloca i32, align 4
  %ref.tmp6 = alloca %"class.sat::literal", align 4
  store ptr %this, ptr %this.addr, align 8
  store i32 %old_size, ptr %old_size.addr, align 4
  %this1 = load ptr, ptr %this.addr, align 8
  %m_bounds_trail = getelementptr inbounds %"class.arith::solver", ptr %this1, i32 0, i32 28
  %call = call noundef i32 @_ZNK6vectorIjLb0EjE4sizeEv(ptr noundef nonnull align 8 dereferenceable(8) %m_bounds_trail)
  store i32 %call, ptr %i, align 4
  br label %for.cond

for.cond:                                         ; preds = %for.body, %entry
  %0 = load i32, ptr %i, align 4
  %dec = add i32 %0, -1
  store i32 %dec, ptr %i, align 4
  %1 = load i32, ptr %old_size.addr, align 4
  %cmp = icmp ugt i32 %0, %1
  br i1 %cmp, label %for.body, label %for.end

for.body:                                         ; preds = %for.cond
  %m_bounds_trail2 = getelementptr inbounds %"class.arith::solver", ptr %this1, i32 0, i32 28
  %2 = load i32, ptr %i, align 4
  %call3 = call noundef nonnull align 4 dereferenceable(4) ptr @_ZN6vectorIjLb0EjEixEj(ptr noundef nonnull align 8 dereferenceable(8) %m_bounds_trail2, i32 noundef %2)
  %3 = load i32, ptr %call3, align 4
  store i32 %3, ptr %v, align 4
  %m_bounds = getelementptr inbounds %"class.arith::solver", ptr %this1, i32 0, i32 26
  %4 = load i32, ptr %v, align 4
  %call4 = call noundef nonnull align 8 dereferenceable(8) ptr @_ZN6vectorI10ptr_vectorIN6lp_api5boundIN3sat7literalEEEELb1EjEixEj(ptr noundef nonnull align 8 dereferenceable(8) %m_bounds, i32 noundef %4)
  %call5 = call noundef nonnull align 8 dereferenceable(8) ptr @_ZN6vectorIPN6lp_api5boundIN3sat7literalEEELb0EjE4backEv(ptr noundef nonnull align 8 dereferenceable(8) %call4)
  %5 = load ptr, ptr %call5, align 8
  store ptr %5, ptr %b, align 8
  %m_bool_var2bound = getelementptr inbounds %"class.arith::solver", ptr %this1, i32 0, i32 25
  %6 = load ptr, ptr %b, align 8
  %call7 = call i32 @_ZNK6lp_api5boundIN3sat7literalEE7get_litEv(ptr noundef nonnull align 8 dereferenceable(68) %6)
  %coerce.dive = getelementptr inbounds %"class.sat::literal", ptr %ref.tmp6, i32 0, i32 0
  store i32 %call7, ptr %coerce.dive, align 4
  %call8 = call noundef i32 @_ZNK3sat7literal3varEv(ptr noundef nonnull align 4 dereferenceable(4) %ref.tmp6)
  store i32 %call8, ptr %ref.tmp, align 4
  call void @_ZN9table2mapI17default_map_entryIjPN6lp_api5boundIN3sat7literalEEEE6u_hash4u_eqE5eraseERKj(ptr noundef nonnull align 8 dereferenceable(24) %m_bool_var2bound, ptr noundef nonnull align 4 dereferenceable(4) %ref.tmp)
  %7 = load ptr, ptr %b, align 8
  call void @_Z7deallocIN6lp_api5boundIN3sat7literalEEEEvPT_(ptr noundef %7)
  %m_bounds9 = getelementptr inbounds %"class.arith::solver", ptr %this1, i32 0, i32 26
  %8 = load i32, ptr %v, align 4
  %call10 = call noundef nonnull align 8 dereferenceable(8) ptr @_ZN6vectorI10ptr_vectorIN6lp_api5boundIN3sat7literalEEEELb1EjEixEj(ptr noundef nonnull align 8 dereferenceable(8) %m_bounds9, i32 noundef %8)
  call void @_ZN6vectorIPN6lp_api5boundIN3sat7literalEEELb0EjE8pop_backEv(ptr noundef nonnull align 8 dereferenceable(8) %call10)
  br label %for.cond, !llvm.loop !4

for.end:                                          ; preds = %for.cond
  %m_bounds_trail11 = getelementptr inbounds %"class.arith::solver", ptr %this1, i32 0, i32 28
  %9 = load i32, ptr %old_size.addr, align 4
  call void @_ZN6vectorIjLb0EjE6shrinkEj(ptr noundef nonnull align 8 dereferenceable(8) %m_bounds_trail11, i32 noundef %9)
  ret void
}