; Function Attrs: mustprogress uwtable
define hidden void @_ZN5arith6solver10del_boundsEj(ptr noundef nonnull align 8 dereferenceable(1144) %this, i32 noundef %old_size) local_unnamed_addr #3 align 2 {
entry:
  %ref.tmp.i.i = alloca %struct._key_data.415, align 8
  %m_bounds_trail = getelementptr inbounds i8, ptr %this, i64 440
  %0 = load ptr, ptr %m_bounds_trail, align 8
  %cmp.i = icmp eq ptr %0, null
  br i1 %cmp.i, label %_ZN6vectorIjLb0EjE6shrinkEj.exit, label %_ZNK6vectorIjLb0EjE4sizeEv.exit

_ZNK6vectorIjLb0EjE4sizeEv.exit:                  ; preds = %entry
  %arrayidx.i = getelementptr inbounds i8, ptr %0, i64 -4
  %1 = load i32, ptr %arrayidx.i, align 4
  %cmp15 = icmp ugt i32 %1, %old_size
  br i1 %cmp15, label %for.body.lr.ph, label %if.then.i

for.body.lr.ph:                                   ; preds = %_ZNK6vectorIjLb0EjE4sizeEv.exit
  %m_bounds = getelementptr inbounds i8, ptr %this, i64 424
  %m_bool_var2bound = getelementptr inbounds i8, ptr %this, i64 400
  %2 = zext i32 %1 to i64
  %3 = zext i32 %old_size to i64
  br label %for.body

for.body:                                         ; preds = %for.body.lr.ph, %_Z7deallocIN6lp_api5boundIN3sat7literalEEEEvPT_.exit
  %indvars.iv = phi i64 [ %2, %for.body.lr.ph ], [ %4, %_Z7deallocIN6lp_api5boundIN3sat7literalEEEEvPT_.exit ]
  %4 = add nsw i64 %indvars.iv, -1
  %5 = load ptr, ptr %m_bounds_trail, align 8
  %arrayidx.i5 = getelementptr inbounds i32, ptr %5, i64 %4
  %6 = load i32, ptr %arrayidx.i5, align 4
  %7 = load ptr, ptr %m_bounds, align 8
  %idxprom.i6 = zext i32 %6 to i64
  %arrayidx.i7 = getelementptr inbounds %class.ptr_vector.36, ptr %7, i64 %idxprom.i6
  %8 = load ptr, ptr %arrayidx.i7, align 8
  %cmp.i.i = icmp eq ptr %8, null
  br i1 %cmp.i.i, label %_Z7deallocIN6lp_api5boundIN3sat7literalEEEEvPT_.exit, label %if.end.i.i

if.end.i.i:                                       ; preds = %for.body
  %arrayidx.i.i = getelementptr inbounds i8, ptr %8, i64 -4
  %9 = load i32, ptr %arrayidx.i.i, align 4
  %10 = add i32 %9, -1
  %11 = zext i32 %10 to i64
  br label %_Z7deallocIN6lp_api5boundIN3sat7literalEEEEvPT_.exit

_Z7deallocIN6lp_api5boundIN3sat7literalEEEEvPT_.exit: ; preds = %for.body, %if.end.i.i
  %retval.0.i.i = phi i64 [ %11, %if.end.i.i ], [ 4294967295, %for.body ]
  %arrayidx.i1.i = getelementptr inbounds ptr, ptr %8, i64 %retval.0.i.i
  %12 = load ptr, ptr %arrayidx.i1.i, align 8
  %m_bv.i = getelementptr inbounds i8, ptr %12, i64 8
  %retval.sroa.0.0.copyload.i = load i32, ptr %m_bv.i, align 8
  %shr.i = lshr i32 %retval.sroa.0.0.copyload.i, 1
  call void @llvm.lifetime.start.p0(i64 16, ptr nonnull %ref.tmp.i.i)
  store i32 %shr.i, ptr %ref.tmp.i.i, align 8
  call void @_ZN14core_hashtableI17default_map_entryIjPN6lp_api5boundIN3sat7literalEEEEN9table2mapIS7_6u_hash4u_eqE15entry_hash_procENSB_13entry_eq_procEE6removeERK9_key_dataIjS6_E(ptr noundef nonnull align 8 dereferenceable(20) %m_bool_var2bound, ptr noundef nonnull align 8 dereferenceable(16) %ref.tmp.i.i)
  call void @llvm.lifetime.end.p0(i64 16, ptr nonnull %ref.tmp.i.i)
  %vtable.i = load ptr, ptr %12, align 8
  %13 = load ptr, ptr %vtable.i, align 8
  call void %13(ptr noundef nonnull align 8 dereferenceable(68) %12) #23
  call void @_ZN6memory10deallocateEPv(ptr noundef nonnull %12)
  %14 = load ptr, ptr %m_bounds, align 8
  %arrayidx.i11 = getelementptr inbounds %class.ptr_vector.36, ptr %14, i64 %idxprom.i6
  %15 = load ptr, ptr %arrayidx.i11, align 8
  %arrayidx.i12 = getelementptr inbounds i8, ptr %15, i64 -4
  %16 = load i32, ptr %arrayidx.i12, align 4
  %dec.i = add i32 %16, -1
  store i32 %dec.i, ptr %arrayidx.i12, align 4
  %cmp.wide = icmp ugt i64 %4, %3
  br i1 %cmp.wide, label %for.body, label %for.end, !llvm.loop !24

for.end:                                          ; preds = %_Z7deallocIN6lp_api5boundIN3sat7literalEEEEvPT_.exit
  %.pre = load ptr, ptr %m_bounds_trail, align 8
  %tobool.not.i = icmp eq ptr %.pre, null
  br i1 %tobool.not.i, label %_ZN6vectorIjLb0EjE6shrinkEj.exit, label %if.then.i

if.then.i:                                        ; preds = %_ZNK6vectorIjLb0EjE4sizeEv.exit, %for.end
  %17 = phi ptr [ %.pre, %for.end ], [ %0, %_ZNK6vectorIjLb0EjE4sizeEv.exit ]
  %arrayidx.i13 = getelementptr inbounds i8, ptr %17, i64 -4
  store i32 %old_size, ptr %arrayidx.i13, align 4
  br label %_ZN6vectorIjLb0EjE6shrinkEj.exit

_ZN6vectorIjLb0EjE6shrinkEj.exit:                 ; preds = %entry, %for.end, %if.then.i
  ret void
}